target datalayout = "e-m:e-p270:32:32-p271:32:32-p272:64:64-i64:64-i128:128-f80:128-n8:16:32:64-S128"
target triple = "x86_64-pc-linux-gnu"

%struct._lv_spinbox_t = type { %struct._lv_textarea_t, i32, i32, i32, i32, i16 }
%struct._lv_textarea_t = type { %struct._lv_obj_t, ptr, ptr, ptr, ptr, ptr, i32, i32, %struct.anon, i32, i32, i8 }
%struct._lv_obj_t = type { ptr, ptr, ptr, ptr, ptr, %struct.lv_area_t, i32, i16, i16 }
%struct.lv_area_t = type { i32, i32, i32, i32 }
%struct.anon = type { i32, i32, %struct.lv_area_t, i32, i8 }

; Function Attrs: nounwind uwtable
define void @lv_spinbox_set_cursor_pos(ptr noundef %0, i32 noundef %1) #0 {
  %3 = alloca ptr, align 8
  %4 = alloca i32, align 4
  %5 = alloca ptr, align 8
  %6 = alloca i32, align 4
  %7 = alloca i32, align 4
  store ptr %0, ptr %3, align 8, !tbaa !3
  store i32 %1, ptr %4, align 4, !tbaa !18
  br label %8

8:                                                ; preds = %2
  br label %9

9:                                                ; preds = %8
  call void @llvm.lifetime.start.p0(i64 8, ptr %5) #4
  %10 = load ptr, ptr %3, align 8, !tbaa !3
  store ptr %10, ptr %5, align 8, !tbaa !3
  call void @llvm.lifetime.start.p0(i64 4, ptr %6) #4
  %11 = load ptr, ptr %5, align 8, !tbaa !3
  %12 = getelementptr inbounds nuw %struct._lv_spinbox_t, ptr %11, i32 0, i32 2
  %13 = load i32, ptr %12, align 4, !tbaa !16
  %14 = load ptr, ptr %5, align 8, !tbaa !3
  %15 = getelementptr inbounds nuw %struct._lv_spinbox_t, ptr %14, i32 0, i32 3
  %16 = load i32, ptr %15, align 8, !tbaa !17
  %17 = icmp sgt i32 %16, 0
  br i1 %17, label %18, label %22

18:                                               ; preds = %9
  %19 = load ptr, ptr %5, align 8, !tbaa !3
  %20 = getelementptr inbounds nuw %struct._lv_spinbox_t, ptr %19, i32 0, i32 3
  %21 = load i32, ptr %20, align 8, !tbaa !17
  br label %27

22:                                               ; preds = %9
  %23 = load ptr, ptr %5, align 8, !tbaa !3
  %24 = getelementptr inbounds nuw %struct._lv_spinbox_t, ptr %23, i32 0, i32 3
  %25 = load i32, ptr %24, align 8, !tbaa !17
  %26 = sub nsw i32 0, %25
  br label %27

27:                                               ; preds = %22, %18
  %28 = phi i32 [ %21, %18 ], [ %26, %22 ]
  %29 = icmp sgt i32 %13, %28
  br i1 %29, label %30, label %34

30:                                               ; preds = %27
  %31 = load ptr, ptr %5, align 8, !tbaa !3
  %32 = getelementptr inbounds nuw %struct._lv_spinbox_t, ptr %31, i32 0, i32 2
  %33 = load i32, ptr %32, align 4, !tbaa !16
  br label %50

34:                                               ; preds = %27
  %35 = load ptr, ptr %5, align 8, !tbaa !3
  %36 = getelementptr inbounds nuw %struct._lv_spinbox_t, ptr %35, i32 0, i32 3
  %37 = load i32, ptr %36, align 8, !tbaa !17
  %38 = icmp sgt i32 %37, 0
  br i1 %38, label %39, label %43

39:                                               ; preds = %34
  %40 = load ptr, ptr %5, align 8, !tbaa !3
  %41 = getelementptr inbounds nuw %struct._lv_spinbox_t, ptr %40, i32 0, i32 3
  %42 = load i32, ptr %41, align 8, !tbaa !17
  br label %48

43:                                               ; preds = %34
  %44 = load ptr, ptr %5, align 8, !tbaa !3
  %45 = getelementptr inbounds nuw %struct._lv_spinbox_t, ptr %44, i32 0, i32 3
  %46 = load i32, ptr %45, align 8, !tbaa !17
  %47 = sub nsw i32 0, %46
  br label %48

48:                                               ; preds = %43, %39
  %49 = phi i32 [ %42, %39 ], [ %47, %43 ]
  br label %50

50:                                               ; preds = %48, %30
  %51 = phi i32 [ %33, %30 ], [ %49, %48 ]
  store i32 %51, ptr %6, align 4, !tbaa !18
  call void @llvm.lifetime.start.p0(i64 4, ptr %7) #4
  %52 = load i32, ptr %4, align 4, !tbaa !18
  %53 = trunc i32 %52 to i8
  %54 = call i64 @lv_pow(i64 noundef 10, i8 noundef signext %53)
  %55 = trunc i64 %54 to i32
  store i32 %55, ptr %7, align 4, !tbaa !18
  %56 = load i32, ptr %4, align 4, !tbaa !18
  %57 = icmp ule i32 %56, 0
  br i1 %57, label %58, label %61

58:                                               ; preds = %50
  %59 = load ptr, ptr %5, align 8, !tbaa !3
  %60 = getelementptr inbounds nuw %struct._lv_spinbox_t, ptr %59, i32 0, i32 4
  store i32 1, ptr %60, align 4, !tbaa !15
  br label %70

61:                                               ; preds = %50
  %62 = load i32, ptr %7, align 4, !tbaa !18
  %63 = load i32, ptr %6, align 4, !tbaa !18
  %64 = icmp sle i32 %62, %63
  br i1 %64, label %65, label %69

65:                                               ; preds = %61
  %66 = load i32, ptr %7, align 4, !tbaa !18
  %67 = load ptr, ptr %5, align 8, !tbaa !3
  %68 = getelementptr inbounds nuw %struct._lv_spinbox_t, ptr %67, i32 0, i32 4
  store i32 %66, ptr %68, align 4, !tbaa !15
  br label %69

69:                                               ; preds = %65, %61
  br label %70

70:                                               ; preds = %69, %58
  %71 = load ptr, ptr %3, align 8, !tbaa !3
  call void @lv_spinbox_updatevalue(ptr noundef %71)
  call void @llvm.lifetime.end.p0(i64 4, ptr %7) #4
  call void @llvm.lifetime.end.p0(i64 4, ptr %6) #4
  call void @llvm.lifetime.end.p0(i64 8, ptr %5) #4
  ret void
}