; Function Attrs: nounwind uwtable
define void @lv_spinbox_set_cursor_pos(ptr noundef %0, i32 noundef %1) local_unnamed_addr #0 {
  %3 = getelementptr inbounds nuw i8, ptr %0, i64 164
  %4 = load i32, ptr %3, align 4, !tbaa !15
  %5 = getelementptr inbounds nuw i8, ptr %0, i64 168
  %6 = load i32, ptr %5, align 8, !tbaa !16
  %7 = trunc i32 %1 to i8
  %8 = tail call i64 @lv_pow(i64 noundef 10, i8 noundef signext %7) #7
  %9 = icmp eq i32 %1, 0
  br i1 %9, label %.sink.split, label %10

10:                                               ; preds = %2
  %11 = trunc i64 %8 to i32
  %12 = tail call i32 @llvm.abs.i32(i32 %6, i1 true)
  %spec.select = tail call i32 @llvm.smax.i32(i32 %4, i32 %12)
  %.not = icmp slt i32 %spec.select, %11
  br i1 %.not, label %14, label %.sink.split

.sink.split:                                      ; preds = %10, %2
  %.sink = phi i32 [ 1, %2 ], [ %11, %10 ]
  %13 = getelementptr inbounds nuw i8, ptr %0, i64 172
  store i32 %.sink, ptr %13, align 4, !tbaa !14
  br label %14

14:                                               ; preds = %.sink.split, %10
  tail call fastcc void @lv_spinbox_updatevalue(ptr noundef nonnull %0)
  ret void
}